; Function Attrs: mustprogress uwtable
define internal noundef ptr @_ZL19progress_window_newP16_funnel_ops_id_tPKcS2_iPi(ptr noundef readonly %0, ptr noundef %1, ptr noundef %2, i32 noundef %3, ptr noundef %4) #0 {
  %.not = icmp eq ptr %0, null
  br i1 %.not, label %14, label %6

6:                                                ; preds = %5
  %7 = load ptr, ptr %0, align 8
  %.not9 = icmp eq ptr %7, null
  br i1 %.not9, label %14, label %8

8:                                                ; preds = %6
  %9 = getelementptr inbounds i8, ptr %7, i64 8
  %10 = load ptr, ptr %9, align 8
  %11 = getelementptr inbounds i8, ptr %10, i64 16
  %12 = load ptr, ptr %11, align 8
  %13 = tail call noundef ptr @create_progress_dlg(ptr noundef %12, ptr noundef %1, ptr noundef %2, i32 noundef %3, ptr noundef %4)
  br label %14

14:                                               ; preds = %5, %6, %8
  %.0 = phi ptr [ %13, %8 ], [ null, %6 ], [ null, %5 ]
  ret ptr %.0
}